target datalayout = "e-m:e-p270:32:32-p271:32:32-p272:64:64-i64:64-i128:128-f80:128-n8:16:32:64-S128"
target triple = "x86_64-pc-linux-gnu"

%struct.nghttp2_buf = type { ptr, ptr, ptr, ptr, ptr }
%struct.nghttp2_bufs = type { ptr, ptr, ptr, i64, i64, i64, i64, i64 }
%struct.nghttp2_buf_chain = type { ptr, %struct.nghttp2_buf }

; Function Attrs: nounwind uwtable
define hidden void @nghttp2_buf_wrap_init(ptr noundef %0, ptr noundef %1, i64 noundef %2) #0 {
  %4 = alloca ptr, align 8
  %5 = alloca ptr, align 8
  %6 = alloca i64, align 8
  store ptr %0, ptr %4, align 8, !tbaa !3
  store ptr %1, ptr %5, align 8, !tbaa !16
  store i64 %2, ptr %6, align 8, !tbaa !14
  %7 = load ptr, ptr %5, align 8, !tbaa !16
  %8 = load ptr, ptr %4, align 8, !tbaa !3
  %9 = getelementptr inbounds nuw %struct.nghttp2_buf, ptr %8, i32 0, i32 1
  store ptr %7, ptr %9, align 8, !tbaa !10
  %10 = load ptr, ptr %4, align 8, !tbaa !3
  %11 = getelementptr inbounds nuw %struct.nghttp2_buf, ptr %10, i32 0, i32 4
  store ptr %7, ptr %11, align 8, !tbaa !13
  %12 = load ptr, ptr %4, align 8, !tbaa !3
  %13 = getelementptr inbounds nuw %struct.nghttp2_buf, ptr %12, i32 0, i32 3
  store ptr %7, ptr %13, align 8, !tbaa !12
  %14 = load ptr, ptr %4, align 8, !tbaa !3
  %15 = getelementptr inbounds nuw %struct.nghttp2_buf, ptr %14, i32 0, i32 2
  store ptr %7, ptr %15, align 8, !tbaa !11
  %16 = load ptr, ptr %4, align 8, !tbaa !3
  %17 = getelementptr inbounds nuw %struct.nghttp2_buf, ptr %16, i32 0, i32 0
  store ptr %7, ptr %17, align 8, !tbaa !7
  %18 = load i64, ptr %6, align 8, !tbaa !14
  %19 = icmp ne i64 %18, 0
  br i1 %19, label %20, label %26

20:                                               ; preds = %3
  %21 = load i64, ptr %6, align 8, !tbaa !14
  %22 = load ptr, ptr %4, align 8, !tbaa !3
  %23 = getelementptr inbounds nuw %struct.nghttp2_buf, ptr %22, i32 0, i32 1
  %24 = load ptr, ptr %23, align 8, !tbaa !10
  %25 = getelementptr inbounds nuw i8, ptr %24, i64 %21
  store ptr %25, ptr %23, align 8, !tbaa !10
  br label %26

26:                                               ; preds = %20, %3
  ret void
}

; Function Attrs: nounwind uwtable
define hidden i64 @nghttp2_bufs_len(ptr noundef %0) #0 {
  %2 = alloca ptr, align 8
  %3 = alloca ptr, align 8
  %4 = alloca i64, align 8
  store ptr %0, ptr %2, align 8, !tbaa !3
  call void @llvm.lifetime.start.p0(i64 8, ptr %3) #4
  call void @llvm.lifetime.start.p0(i64 8, ptr %4) #4
  store i64 0, ptr %4, align 8, !tbaa !14
  %5 = load ptr, ptr %2, align 8, !tbaa !3
  %6 = getelementptr inbounds nuw %struct.nghttp2_bufs, ptr %5, i32 0, i32 0
  %7 = load ptr, ptr %6, align 8, !tbaa !24
  store ptr %7, ptr %3, align 8, !tbaa !23
  br label %8

8:                                                ; preds = %25, %1
  %9 = load ptr, ptr %3, align 8, !tbaa !23
  %10 = icmp ne ptr %9, null
  br i1 %10, label %11, label %29

11:                                               ; preds = %8
  %12 = load ptr, ptr %3, align 8, !tbaa !23
  %13 = getelementptr inbounds nuw %struct.nghttp2_buf_chain, ptr %12, i32 0, i32 1
  %14 = getelementptr inbounds nuw %struct.nghttp2_buf, ptr %13, i32 0, i32 3
  %15 = load ptr, ptr %14, align 8, !tbaa !28
  %16 = load ptr, ptr %3, align 8, !tbaa !23
  %17 = getelementptr inbounds nuw %struct.nghttp2_buf_chain, ptr %16, i32 0, i32 1
  %18 = getelementptr inbounds nuw %struct.nghttp2_buf, ptr %17, i32 0, i32 2
  %19 = load ptr, ptr %18, align 8, !tbaa !26
  %20 = ptrtoint ptr %15 to i64
  %21 = ptrtoint ptr %19 to i64
  %22 = sub i64 %20, %21
  %23 = load i64, ptr %4, align 8, !tbaa !14
  %24 = add i64 %23, %22
  store i64 %24, ptr %4, align 8, !tbaa !14
  br label %25

25:                                               ; preds = %11
  %26 = load ptr, ptr %3, align 8, !tbaa !23
  %27 = getelementptr inbounds nuw %struct.nghttp2_buf_chain, ptr %26, i32 0, i32 0
  %28 = load ptr, ptr %27, align 8, !tbaa !36
  store ptr %28, ptr %3, align 8, !tbaa !23
  br label %8, !llvm.loop !44

29:                                               ; preds = %8
  %30 = load i64, ptr %4, align 8, !tbaa !14
  call void @llvm.lifetime.end.p0(i64 8, ptr %4) #4
  call void @llvm.lifetime.end.p0(i64 8, ptr %3) #4
  ret i64 %30
}

; Function Attrs: nounwind uwtable
define hidden i64 @nghttp2_bufs_remove_copy(ptr noundef %0, ptr noundef %1) #0 {
  %3 = alloca ptr, align 8
  %4 = alloca ptr, align 8
  %5 = alloca i64, align 8
  %6 = alloca ptr, align 8
  %7 = alloca ptr, align 8
  %8 = alloca %struct.nghttp2_buf, align 8
  store ptr %0, ptr %3, align 8, !tbaa !3
  store ptr %1, ptr %4, align 8, !tbaa !16
  call void @llvm.lifetime.start.p0(i64 8, ptr %5) #4
  call void @llvm.lifetime.start.p0(i64 8, ptr %6) #4
  call void @llvm.lifetime.start.p0(i64 8, ptr %7) #4
  call void @llvm.lifetime.start.p0(i64 40, ptr %8) #4
  %9 = load ptr, ptr %3, align 8, !tbaa !3
  %10 = call i64 @nghttp2_bufs_len(ptr noundef %9)
  store i64 %10, ptr %5, align 8, !tbaa !14
  %11 = load ptr, ptr %4, align 8, !tbaa !16
  %12 = load i64, ptr %5, align 8, !tbaa !14
  call void @nghttp2_buf_wrap_init(ptr noundef %8, ptr noundef %11, i64 noundef %12)
  %13 = load ptr, ptr %3, align 8, !tbaa !3
  %14 = getelementptr inbounds nuw %struct.nghttp2_bufs, ptr %13, i32 0, i32 0
  %15 = load ptr, ptr %14, align 8, !tbaa !24
  store ptr %15, ptr %6, align 8, !tbaa !23
  br label %16

16:                                               ; preds = %38, %2
  %17 = load ptr, ptr %6, align 8, !tbaa !23
  %18 = icmp ne ptr %17, null
  br i1 %18, label %19, label %42

19:                                               ; preds = %16
  %20 = load ptr, ptr %6, align 8, !tbaa !23
  %21 = getelementptr inbounds nuw %struct.nghttp2_buf_chain, ptr %20, i32 0, i32 1
  store ptr %21, ptr %7, align 8, !tbaa !3
  %22 = getelementptr inbounds nuw %struct.nghttp2_buf, ptr %8, i32 0, i32 3
  %23 = load ptr, ptr %22, align 8, !tbaa !12
  %24 = load ptr, ptr %7, align 8, !tbaa !3
  %25 = getelementptr inbounds nuw %struct.nghttp2_buf, ptr %24, i32 0, i32 2
  %26 = load ptr, ptr %25, align 8, !tbaa !11
  %27 = load ptr, ptr %7, align 8, !tbaa !3
  %28 = getelementptr inbounds nuw %struct.nghttp2_buf, ptr %27, i32 0, i32 3
  %29 = load ptr, ptr %28, align 8, !tbaa !12
  %30 = load ptr, ptr %7, align 8, !tbaa !3
  %31 = getelementptr inbounds nuw %struct.nghttp2_buf, ptr %30, i32 0, i32 2
  %32 = load ptr, ptr %31, align 8, !tbaa !11
  %33 = ptrtoint ptr %29 to i64
  %34 = ptrtoint ptr %32 to i64
  %35 = sub i64 %33, %34
  %36 = call ptr @nghttp2_cpymem(ptr noundef %23, ptr noundef %26, i64 noundef %35)
  %37 = getelementptr inbounds nuw %struct.nghttp2_buf, ptr %8, i32 0, i32 3
  store ptr %36, ptr %37, align 8, !tbaa !12
  br label %38

38:                                               ; preds = %19
  %39 = load ptr, ptr %6, align 8, !tbaa !23
  %40 = getelementptr inbounds nuw %struct.nghttp2_buf_chain, ptr %39, i32 0, i32 0
  %41 = load ptr, ptr %40, align 8, !tbaa !36
  store ptr %41, ptr %6, align 8, !tbaa !23
  br label %16, !llvm.loop !51

42:                                               ; preds = %16
  %43 = load i64, ptr %5, align 8, !tbaa !14
  call void @llvm.lifetime.end.p0(i64 40, ptr %8) #4
  call void @llvm.lifetime.end.p0(i64 8, ptr %7) #4
  call void @llvm.lifetime.end.p0(i64 8, ptr %6) #4
  call void @llvm.lifetime.end.p0(i64 8, ptr %5) #4
  ret i64 %43
}