; Function Attrs: nounwind uwtable
define hidden i64 @nghttp2_bufs_remove_copy(ptr noundef readonly captures(none) %0, ptr noundef %1) local_unnamed_addr #1 {
  %.067.i = load ptr, ptr %0, align 8, !tbaa !30
  %.not8.i = icmp eq ptr %.067.i, null
  br i1 %.not8.i, label %._crit_edge, label %.lr.ph.i

.lr.ph.i:                                         ; preds = %2, %.lr.ph.i
  %.0610.i = phi ptr [ %.06.i, %.lr.ph.i ], [ %.067.i, %2 ]
  %.09.i = phi i64 [ %10, %.lr.ph.i ], [ 0, %2 ]
  %3 = getelementptr inbounds nuw i8, ptr %.0610.i, i64 32
  %4 = load ptr, ptr %3, align 8, !tbaa !22
  %5 = getelementptr inbounds nuw i8, ptr %.0610.i, i64 24
  %6 = load ptr, ptr %5, align 8, !tbaa !20
  %7 = ptrtoint ptr %4 to i64
  %8 = ptrtoint ptr %6 to i64
  %9 = add i64 %.09.i, %7
  %10 = sub i64 %9, %8
  %.06.i = load ptr, ptr %.0610.i, align 8, !tbaa !30
  %.not.i = icmp eq ptr %.06.i, null
  br i1 %.not.i, label %.lr.ph, label %.lr.ph.i, !llvm.loop !36

.lr.ph:                                           ; preds = %.lr.ph.i, %.lr.ph
  %.017 = phi ptr [ %.0, %.lr.ph ], [ %.067.i, %.lr.ph.i ]
  %.sroa.6.016 = phi ptr [ %18, %.lr.ph ], [ %1, %.lr.ph.i ]
  %11 = getelementptr inbounds nuw i8, ptr %.017, i64 24
  %12 = load ptr, ptr %11, align 8, !tbaa !3
  %13 = getelementptr inbounds nuw i8, ptr %.017, i64 32
  %14 = load ptr, ptr %13, align 8, !tbaa !10
  %15 = ptrtoint ptr %14 to i64
  %16 = ptrtoint ptr %12 to i64
  %17 = sub i64 %15, %16
  %18 = tail call ptr @nghttp2_cpymem(ptr noundef %.sroa.6.016, ptr noundef %12, i64 noundef %17) #10
  %.0 = load ptr, ptr %.017, align 8, !tbaa !30
  %.not = icmp eq ptr %.0, null
  br i1 %.not, label %._crit_edge, label %.lr.ph, !llvm.loop !42

._crit_edge:                                      ; preds = %.lr.ph, %2
  %.0.lcssa.i1319 = phi i64 [ 0, %2 ], [ %10, %.lr.ph ]
  ret i64 %.0.lcssa.i1319
}